target datalayout = "e-m:e-p270:32:32-p271:32:32-p272:64:64-i64:64-i128:128-f80:128-n8:16:32:64-S128"
target triple = "x86_64-pc-linux-gnu"

%"class.clang::QualType" = type { %"class.llvm::PointerIntPair" }
%"class.llvm::PointerIntPair" = type { %"struct.llvm::detail::PunnedPointer" }
%"struct.llvm::detail::PunnedPointer" = type { [8 x i8] }
%"class.clang::Qualifiers" = type { i64 }
%"class.std::__cxx11::basic_string" = type { %"struct.std::__cxx11::basic_string<char>::_Alloc_hider", i64, %union.anon.255 }
%"struct.std::__cxx11::basic_string<char>::_Alloc_hider" = type { ptr }
%union.anon.255 = type { i64, [8 x i8] }
%"class.clang::ExtQualsTypeCommonBase" = type { ptr, %"class.clang::QualType" }
%union.anon = type { %"class.clang::Type::FunctionTypeBitfields" }
%"class.clang::Type::FunctionTypeBitfields" = type { i64 }
%"class.clang::Type" = type { %"class.clang::ExtQualsTypeCommonBase", %union.anon, [8 x i8] }

@.str.18 = private unnamed_addr constant [3 x i8] c"&&\00", align 1

; Function Attrs: mustprogress nounwind uwtable
define linkonce_odr hidden noundef i32 @_ZNK5clang17FunctionProtoType15getRefQualifierEv(ptr noundef nonnull align 16 dereferenceable(48) %0) #0 comdat align 2 {
  %2 = alloca ptr, align 8
  store ptr %0, ptr %2, align 8
  %3 = load ptr, ptr %2, align 8
  %4 = getelementptr inbounds nuw %"class.clang::Type", ptr %3, i32 0, i32 1
  %5 = load i64, ptr %4, align 16
  %6 = lshr i64 %5, 32
  %7 = and i64 %6, 3
  %8 = trunc i64 %7 to i32
  ret i32 %8
}

; Function Attrs: mustprogress nounwind uwtable
define internal void @_ZL29getFunctionQualifiersAsStringB5cxx11PKN5clang17FunctionProtoTypeE(ptr dead_on_unwind noalias writable sret(%"class.std::__cxx11::basic_string") align 8 %0, ptr noundef %1) #0 {
  %3 = alloca ptr, align 8
  %4 = alloca ptr, align 8
  %5 = alloca i1, align 1
  %6 = alloca %"class.clang::Qualifiers", align 8
  store ptr %0, ptr %3, align 8
  store ptr %1, ptr %4, align 8
  store i1 false, ptr %5, align 1
  %7 = load ptr, ptr %4, align 8
  %8 = call i64 @_ZNK5clang17FunctionProtoType14getMethodQualsEv(ptr noundef nonnull align 16 dereferenceable(48) %7)
  %9 = getelementptr inbounds nuw %"class.clang::Qualifiers", ptr %6, i32 0, i32 0
  store i64 %8, ptr %9, align 8
  call void @_ZNK5clang10Qualifiers11getAsStringB5cxx11Ev(ptr dead_on_unwind writable sret(%"class.std::__cxx11::basic_string") align 8 %0, ptr noundef nonnull align 8 dereferenceable(8) %6)
  %10 = load ptr, ptr %4, align 8
  %11 = call noundef i32 @_ZNK5clang17FunctionProtoType15getRefQualifierEv(ptr noundef nonnull align 16 dereferenceable(48) %10)
  switch i32 %11, label %25 [
    i32 0, label %12
    i32 1, label %13
    i32 2, label %19
  ]

12:                                               ; preds = %2
  br label %25

13:                                               ; preds = %2
  %14 = call noundef zeroext i1 @_ZNKSt7__cxx1112basic_stringIcSt11char_traitsIcESaIcEE5emptyEv(ptr noundef nonnull align 8 dereferenceable(32) %0) #15
  br i1 %14, label %17, label %15

15:                                               ; preds = %13
  %16 = call noundef nonnull align 8 dereferenceable(32) ptr @_ZNSt7__cxx1112basic_stringIcSt11char_traitsIcESaIcEEpLEc(ptr noundef nonnull align 8 dereferenceable(32) %0, i8 noundef signext 32)
  br label %17

17:                                               ; preds = %15, %13
  %18 = call noundef nonnull align 8 dereferenceable(32) ptr @_ZNSt7__cxx1112basic_stringIcSt11char_traitsIcESaIcEEpLEc(ptr noundef nonnull align 8 dereferenceable(32) %0, i8 noundef signext 38)
  br label %25

19:                                               ; preds = %2
  %20 = call noundef zeroext i1 @_ZNKSt7__cxx1112basic_stringIcSt11char_traitsIcESaIcEE5emptyEv(ptr noundef nonnull align 8 dereferenceable(32) %0) #15
  br i1 %20, label %23, label %21

21:                                               ; preds = %19
  %22 = call noundef nonnull align 8 dereferenceable(32) ptr @_ZNSt7__cxx1112basic_stringIcSt11char_traitsIcESaIcEEpLEc(ptr noundef nonnull align 8 dereferenceable(32) %0, i8 noundef signext 32)
  br label %23

23:                                               ; preds = %21, %19
  %24 = call noundef nonnull align 8 dereferenceable(32) ptr @_ZNSt7__cxx1112basic_stringIcSt11char_traitsIcESaIcEEpLEPKc(ptr noundef nonnull align 8 dereferenceable(32) %0, ptr noundef @.str.18)
  br label %25

25:                                               ; preds = %23, %17, %12, %2
  store i1 true, ptr %5, align 1
  %26 = load i1, ptr %5, align 1
  br i1 %26, label %28, label %27

27:                                               ; preds = %25
  call void @_ZNSt7__cxx1112basic_stringIcSt11char_traitsIcESaIcEED1Ev(ptr noundef nonnull align 8 dereferenceable(32) %0) #15
  br label %28

28:                                               ; preds = %27, %25
  ret void
}