; Function Attrs: mustprogress nounwind uwtable
define internal fastcc void @_ZL29getFunctionQualifiersAsStringB5cxx11PKN5clang17FunctionProtoTypeE(ptr dead_on_unwind noalias nonnull writable align 8 %0, ptr noundef nonnull %1) unnamed_addr #0 {
  %3 = alloca %"class.clang::Qualifiers", align 8
  %4 = tail call i64 @_ZNK5clang17FunctionProtoType14getMethodQualsEv(ptr noundef nonnull align 16 dereferenceable(48) %1)
  store i64 %4, ptr %3, align 8
  call void @_ZNK5clang10Qualifiers11getAsStringB5cxx11Ev(ptr dead_on_unwind nonnull writable sret(%"class.std::__cxx11::basic_string") align 8 %0, ptr noundef nonnull align 8 dereferenceable(8) %3) #21
  %5 = getelementptr inbounds nuw i8, ptr %1, i64 16
  %6 = load i64, ptr %5, align 16
  %7 = lshr i64 %6, 32
  %8 = trunc nuw i64 %7 to i32
  %9 = and i32 %8, 3
  switch i32 %9, label %22 [
    i32 2, label %16
    i32 1, label %10
  ]

10:                                               ; preds = %2
  %11 = call noundef zeroext i1 @_ZNKSt7__cxx1112basic_stringIcSt11char_traitsIcESaIcEE5emptyEv(ptr noundef nonnull align 8 dereferenceable(32) %0) #21
  br i1 %11, label %14, label %12

12:                                               ; preds = %10
  %13 = call noundef nonnull align 8 dereferenceable(32) ptr @_ZNSt7__cxx1112basic_stringIcSt11char_traitsIcESaIcEEpLEc(ptr noundef nonnull align 8 dereferenceable(32) %0, i8 noundef signext 32) #21
  br label %14

14:                                               ; preds = %12, %10
  %15 = call noundef nonnull align 8 dereferenceable(32) ptr @_ZNSt7__cxx1112basic_stringIcSt11char_traitsIcESaIcEEpLEc(ptr noundef nonnull align 8 dereferenceable(32) %0, i8 noundef signext 38) #21
  br label %22

16:                                               ; preds = %2
  %17 = call noundef zeroext i1 @_ZNKSt7__cxx1112basic_stringIcSt11char_traitsIcESaIcEE5emptyEv(ptr noundef nonnull align 8 dereferenceable(32) %0) #21
  br i1 %17, label %20, label %18

18:                                               ; preds = %16
  %19 = call noundef nonnull align 8 dereferenceable(32) ptr @_ZNSt7__cxx1112basic_stringIcSt11char_traitsIcESaIcEEpLEc(ptr noundef nonnull align 8 dereferenceable(32) %0, i8 noundef signext 32) #21
  br label %20

20:                                               ; preds = %18, %16
  %21 = call noundef nonnull align 8 dereferenceable(32) ptr @_ZNSt7__cxx1112basic_stringIcSt11char_traitsIcESaIcEEpLEPKc(ptr noundef nonnull align 8 dereferenceable(32) %0, ptr noundef nonnull @.str.18) #21
  br label %22

22:                                               ; preds = %2, %14, %20
  ret void
}